Certificate:
    Data:
        Version: 3 (0x2)
        Serial Number: 0 (0x0)
    Signature Algorithm: sha256WithRSAEncryption
        Issuer: C=RU, ST=Moscow, L=Moscow, O=The Organization, OU=Development, CN=The CA/emailAddress=windj007@gmail.com
        Validity
            Not Before: May 20 10:28:34 2016 GMT
            Not After : Feb 14 10:28:34 2019 GMT
        Subject: C=RU, ST=Moscow, L=Moscow, O=The Organization, CN=The Organization Development
        Subject Public Key Info:
            Public Key Algorithm: rsaEncryption
                Public-Key: (2048 bit)
                Modulus:
                    00:9c:49:91:7d:c3:ea:36:71:8f:bc:57:fe:66:41:
                    b9:09:47:e9:9b:18:67:f2:03:02:4a:02:09:67:4f:
                    73:1c:91:a3:40:20:55:64:0d:c6:71:a9:89:b8:87:
                    11:a0:3c:14:ed:1e:8f:f1:d2:09:48:6c:b4:83:ae:
                    32:bf:43:66:29:1e:c5:de:31:f3:42:63:b2:6b:43:
                    e8:3f:3a:df:f9:f8:a2:3c:eb:34:d5:8e:e7:a1:17:
                    98:8f:7a:57:cc:b0:40:d8:4d:0b:4e:35:4b:db:20:
                    c5:56:af:d6:99:2a:85:2e:8b:8b:91:d7:3a:e1:fb:
                    0e:be:e5:6b:77:26:e5:b5:73:90:f8:64:15:dc:cc:
                    83:df:bf:9c:c3:22:9e:14:8d:ce:44:d4:69:4c:e2:
                    95:b3:24:3d:e3:8f:50:ae:4f:fa:2f:b7:0e:c4:c4:
                    63:86:ec:20:3e:bb:10:37:44:87:45:64:4d:0c:b5:
                    4a:1f:36:dd:e0:c9:c1:ca:2a:51:4d:ac:fa:d1:4d:
                    68:e9:5a:ce:46:f1:ed:9d:7a:c9:4e:76:08:c1:7d:
                    e1:a3:2d:99:8c:54:2b:17:39:57:30:6b:dc:9c:a0:
                    86:44:ff:31:29:d7:86:c1:6f:14:c6:74:2c:3d:44:
                    a1:a6:ec:9e:32:3c:63:8e:2f:63:69:ed:9f:72:33:
                    89:93
                Exponent: 65537 (0x10001)
        X509v3 extensions:
            X509v3 Subject Key Identifier: 
                C6:5A:92:08:94:64:D6:7B:FD:C6:E8:92:56:92:43:78:29:B8:4F:C0
            X509v3 Authority Key Identifier: 
                keyid:E4:3D:B6:FE:45:1B:9E:DC:45:CC:B6:8F:EC:EF:A0:53:78:4F:96:4C

            X509v3 Basic Constraints: 
                CA:FALSE
            X509v3 Key Usage: 
                Digital Signature, Key Encipherment
            X509v3 Subject Alternative Name: 
                DNS:localhost
            Netscape Comment: 
                OpenSSL Generated Certificate
    Signature Algorithm: sha256WithRSAEncryption
         89:39:6c:17:08:b6:62:c9:2c:21:ab:40:fc:ab:ba:bc:bf:cb:
         36:df:d8:c8:a6:26:34:57:6d:7c:34:63:b2:bd:8f:05:51:ac:
         0b:8c:e0:76:fb:b6:ea:6e:0a:7a:be:56:e2:c5:06:40:5a:c9:
         09:b4:e1:b1:32:36:8f:9c:c3:b0:21:f0:7c:ec:04:96:f7:99:
         de:3c:68:8c:cc:11:8c:79:4d:fa:e8:88:95:fd:3e:a9:bf:49:
         25:9c:5d:82:2c:25:a7:84:24:7a:cf:aa:27:eb:e2:2b:66:2d:
         e5:2b:22:ea:fe:d1:46:6e:04:08:84:c2:8c:78:3e:ba:73:ee:
         b6:b6:9e:3e:14:db:76:8b:8f:e1:8c:5f:a4:1b:27:ae:17:01:
         03:c7:33:c0:dc:26:24:05:a6:d2:b4:ed:d5:ab:f8:4b:69:ef:
         b0:61:09:0f:ce:1a:2f:66:72:45:f2:29:b0:36:d5:4c:26:6e:
         ad:b8:29:37:f2:07:76:d7:54:88:37:b4:33:fa:a4:53:94:2f:
         4b:a7:f0:0d:33:6f:52:a1:0d:2b:12:29:62:e2:73:12:bf:4d:
         b3:16:da:ee:ce:2e:c7:0a:7e:fc:a7:c8:50:0a:9c:a9:4f:e4:
         4f:a8:c8:4a:3b:26:bf:2f:65:b7:0a:9d:d7:14:6b:d4:e1:da:
         86:d2:ac:93:c9:9d:86:97:70:fc:53:28:78:76:75:84:88:df:
         b8:e4:fa:23:c0:3d:f2:d5:77:e5:06:46:66:6e:6b:4c:96:a5:
         c2:e2:88:c9:80:a9:ab:29:96:8f:8d:84:05:2b:76:e2:f7:c6:
         bf:2d:b7:6a:d2:08:5c:23:a0:6a:c6:89:15:58:dd:f1:b1:4a:
         b5:d6:d0:9b:72:52:b6:6b:36:57:ea:30:1d:a2:b6:37:6e:5c:
         45:dd:30:f5:c8:ef:9a:7c:85:4e:38:74:74:f3:dc:47:24:5b:
         43:63:52:c1:24:32:ca:d9:47:ad:a5:0d:91:df:6b:fb:4c:5a:
         3d:31:d5:9e:ed:92:96:2a:fd:95:82:be:ca:91:5d:b4:60:12:
         f9:09:67:ac:9d:e8:00:60:59:d9:c8:86:8c:9b:93:56:04:c0:
         e2:00:82:bb:e4:ee:22:69:2a:14:5c:22:7e:a6:9c:b8:20:19:
         55:fa:1b:17:c1:32:97:14:17:6f:0e:22:f8:c4:cd:66:f3:78:
         68:75:29:a7:6f:66:90:34:7e:a0:64:c3:67:e2:f1:c0:06:3b:
         e6:61:97:fd:40:4c:cf:68:92:64:ae:e0:34:28:ce:52:4d:b4:
         c2:f5:a3:2e:a1:a1:76:a5:98:01:7a:1b:14:c2:b4:50:19:69:
         13:22:d5:2d:04:ab:8d:19
-----BEGIN CERTIFICATE-----
MIIFITCCAwmgAwIBAgIBADANBgkqhkiG9w0BAQsFADCBlDELMAkGA1UEBhMCUlUx
DzANBgNVBAgMBk1vc2NvdzEPMA0GA1UEBwwGTW9zY293MRkwFwYDVQQKDBBUaGUg
T3JnYW5pemF0aW9uMRQwEgYDVQQLDAtEZXZlbG9wbWVudDEPMA0GA1UEAwwGVGhl
IENBMSEwHwYJKoZIhvcNAQkBFhJ3aW5kajAwN0BnbWFpbC5jb20wHhcNMTYwNTIw
MTAyODM0WhcNMTkwMjE0MTAyODM0WjBxMQswCQYDVQQGEwJSVTEPMA0GA1UECAwG
TW9zY293MQ8wDQYDVQQHDAZNb3Njb3cxGTAXBgNVBAoMEFRoZSBPcmdhbml6YXRp
b24xJTAjBgNVBAMMHFRoZSBPcmdhbml6YXRpb24gRGV2ZWxvcG1lbnQwggEiMA0G
CSqGSIb3DQEBAQUAA4IBDwAwggEKAoIBAQCcSZF9w+o2cY+8V/5mQbkJR+mbGGfy
AwJKAglnT3MckaNAIFVkDcZxqYm4hxGgPBTtHo/x0glIbLSDrjK/Q2YpHsXeMfNC
Y7JrQ+g/Ot/5+KI86zTVjuehF5iPelfMsEDYTQtONUvbIMVWr9aZKoUui4uR1zrh
+w6+5Wt3JuW1c5D4ZBXczIPfv5zDIp4Ujc5E1GlM4pWzJD3jj1CuT/ovtw7ExGOG
7CA+uxA3RIdFZE0MtUofNt3gycHKKlFNrPrRTWjpWs5G8e2deslOdgjBfeGjLZmM
VCsXOVcwa9ycoIZE/zEp14bBbxTGdCw9RKGm7J4yPGOOL2Np7Z9yM4mTAgMBAAGj
gZ8wgZwwHQYDVR0OBBYEFMZakgiUZNZ7/cboklaSQ3gpuE/AMB8GA1UdIwQYMBaA
FOQ9tv5FG57cRcy2j+zvoFN4T5ZMMAkGA1UdEwQCMAAwCwYDVR0PBAQDAgWgMBQG
A1UdEQQNMAuCCWxvY2FsaG9zdDAsBglghkgBhvhCAQ0EHxYdT3BlblNTTCBHZW5l
cmF0ZWQgQ2VydGlmaWNhdGUwDQYJKoZIhvcNAQELBQADggIBAIk5bBcItmLJLCGr
QPyrury/yzbf2MimJjRXbXw0Y7K9jwVRrAuM4Hb7tupuCnq+VuLFBkBayQm04bEy
No+cw7Ah8HzsBJb3md48aIzMEYx5TfroiJX9Pqm/SSWcXYIsJaeEJHrPqifr4itm
LeUrIur+0UZuBAiEwox4Prpz7ra2nj4U23aLj+GMX6QbJ64XAQPHM8DcJiQFptK0
7dWr+Etp77BhCQ/OGi9mckXyKbA21Uwmbq24KTfyB3bXVIg3tDP6pFOUL0un8A0z
b1KhDSsSKWLicxK/TbMW2u7OLscKfvynyFAKnKlP5E+oyEo7Jr8vZbcKndcUa9Th
2obSrJPJnYaXcPxTKHh2dYSI37jk+iPAPfLVd+UGRmZua0yWpcLiiMmAqasplo+N
hAUrduL3xr8tt2rSCFwjoGrGiRVY3fGxSrXW0JtyUrZrNlfqMB2itjduXEXdMPXI
75p8hU44dHTz3EckW0NjUsEkMsrZR62lDZHfa/tMWj0x1Z7tkpYq/ZWCvsqRXbRg
EvkJZ6yd6ABgWdnIhoybk1YEwOIAgrvk7iJpKhRcIn6mnLggGVX6GxfBMpcUF28O
IvjEzWbzeGh1KadvZpA0fqBkw2fi8cAGO+Zhl/1ATM9okmSu4DQozlJNtML1oy6h
oXalmAF6GxTCtFAZaRMi1S0Eq40Z
-----END CERTIFICATE-----
